(dp0
I6146
(cnumpy.core.multiarray
scalar
p1
(cnumpy
dtype
p2
(S'f4'
p3
I0
I1
tp4
Rp5
(I3
S'<'
p6
NNNI-1
I-1
I0
tp7
bS'\xa2\xd1/='
p8
tp9
Rp10
g1
(g5
S'~\xfb\xff='
p11
tp12
Rp13
g1
(g2
(S'f8'
p14
I0
I1
tp15
Rp16
(I3
S'<'
p17
NNNI-1
I-1
I0
tp18
bS'\x00\x00\x00\xc4n\xa0\xea?'
p19
tp20
Rp21
tp22
sI5635
(g1
(g5
S'\xbc!\x83='
p23
tp24
Rp25
g1
(g5
S'\xb4s\x16>'
p26
tp27
Rp28
g1
(g16
S'\x00\x00\x00p\xdb?\xe9?'
p29
tp30
Rp31
tp32
sI8842
(g1
(g5
S'\t\x94\xaf='
p33
tp34
Rp35
g1
(g5
S'3\xfa=>'
p36
tp37
Rp38
g1
(g16
S'\x00\x00\x00D\xdeQ\xe7?'
p39
tp40
Rp41
tp42
sI5640
(g1
(g5
S'S\xee\x91='
p43
tp44
Rp45
g1
(g5
S'\x06\x11!>'
p46
tp47
Rp48
g1
(g16
S'\x00\x00\x00\x84\xbe\xaf\xe8?'
p49
tp50
Rp51
tp52
sI4617
(g1
(g5
S'Q\xab\xee='
p53
tp54
Rp55
g1
(g5
S'"\xd5Z>'
p56
tp57
Rp58
g1
(g16
S'\x00\x00\x00\xac\xa9n\xe5?'
p59
tp60
Rp61
tp62
sI2058
(g1
(g5
S'\xf1sW='
p63
tp64
Rp65
g1
(g5
S'\xb7\xec\x12>'
p66
tp67
Rp68
g1
(g16
S'\x00\x00\x00f\xb2\xb9\xe9?'
p69
tp70
Rp71
tp72
sI7993
(g1
(g5
S'`\x80\xaa='
p73
tp74
Rp75
g1
(g5
S'\x14h=>'
p76
tp77
Rp78
g1
(g16
S'\x00\x00\x00\xe0\xbdj\xe7?'
p79
tp80
Rp81
tp82
sI2221
(g1
(g5
S'\xe0\xacA='
p83
tp84
Rp85
g1
(g5
S'\xb4\x02\x0c>'
p86
tp87
Rp88
g1
(g16
S'\x00\x00\x00\xa0\x90\x1c\xea?'
p89
tp90
Rp91
tp92
sI8721
(g1
(g5
S'\xf2\xf9\x7f='
p93
tp94
Rp95
g1
(g5
S'{\xf1&>'
p96
tp97
Rp98
g1
(g16
S'\x00\x00\x00D\x80\xc8\xe8?'
p99
tp100
Rp101
tp102
sI8722
(g1
(g5
S'\xf1\xba\x8b='
p103
tp104
Rp105
g1
(g5
S'\x05\xdc.>'
p106
tp107
Rp108
g1
(g16
S'\x00\x00\x00\x144Z\xe8?'
p109
tp110
Rp111
tp112
sI3603
(g1
(g5
S'T\x18\x1f='
p113
tp114
Rp115
g1
(g5
S'r\xe2\xe2='
p116
tp117
Rp118
g1
(g16
S'\x00\x00\x00\x90E6\xeb?'
p119
tp120
Rp121
tp122
sI8542
(g1
(g5
S'\xad\nX='
p123
tp124
Rp125
g1
(g5
S'\xd6\xee\x1b>'
p126
tp127
Rp128
g1
(g16
S'\x00\x00\x00\xf6sp\xe9?'
p129
tp130
Rp131
tp132
sI7701
(g1
(g5
S'rrJ='
p133
tp134
Rp135
g1
(g5
S'\xe3\xdb\x14>'
p136
tp137
Rp138
g1
(g16
S'\x00\x00\x00\x04<\xc4\xe9?'
p139
tp140
Rp141
tp142
sI4120
(g1
(g5
S'~\x155='
p143
tp144
Rp145
g1
(g5
S'\xd3\xa0\xf6='
p146
tp147
Rp148
g1
(g16
S'\x00\x00\x00\xb8Q\xbb\xea?'
p149
tp150
Rp151
tp152
sI6404
(g1
(g5
S'=X\x93='
p153
tp154
Rp155
g1
(g5
S'\\\x1e1>'
p156
tp157
Rp158
g1
(g16
S'\x00\x00\x00,\xac)\xe8?'
p159
tp160
Rp161
tp162
sI5658
(g1
(g5
S'\xdf\xd7\xfc='
p163
tp164
Rp165
g1
(g5
S'\xa7\xf2n>'
p166
tp167
Rp168
g1
(g16
S'\x00\x00\x00L\x0b\x95\xe4?'
p169
tp170
Rp171
tp172
sI3617
(g1
(g5
S'\xd9~\x8e='
p173
tp174
Rp175
g1
(g5
S'\xd7\x9c5>'
p176
tp177
Rp178
g1
(g16
S'\x00\x00\x00\xe4\x1d\x19\xe8?'
p179
tp180
Rp181
tp182
sI1062
(g1
(g5
S'<+\x93='
p183
tp184
Rp185
g1
(g5
S'\xef\xe77>'
p186
tp187
Rp188
g1
(g16
S'\x00\x00\x00\x98\x13\xf4\xe7?'
p189
tp190
Rp191
tp192
sI3624
(g1
(g5
S'O\xe6\x12='
p193
tp194
Rp195
g1
(g5
S'm\xac\xeb='
p196
tp197
Rp198
g1
(g16
S'\x00\x00\x00\xae\x81+\xeb?'
p199
tp200
Rp201
tp202
sI2091
(g1
(g5
S'_\x1c\xd7='
p203
tp204
Rp205
g1
(g5
S'Y\xe76>'
p206
tp207
Rp208
g1
(g16
S'\x00\x00\x00\xbcS\xec\xe6?'
p209
tp210
Rp211
tp212
sI5165
(g1
(g5
S'E\x13\x9c='
p213
tp214
Rp215
g1
(g5
S'*\xe32>'
p216
tp217
Rp218
g1
(g16
S'\x00\x00\x00\x9c\x99\xf8\xe7?'
p219
tp220
Rp221
tp222
sI560
(g1
(g5
S'\xb8\xcc{='
p223
tp224
Rp225
g1
(g5
S'e\xaa&>'
p226
tp227
Rp228
g1
(g16
S'\x00\x00\x00h\x13\xd3\xe8?'
p229
tp230
Rp231
tp232
sI7854
(g1
(g5
S'\xa2\xda\xce='
p233
tp234
Rp235
g1
(g5
S'\xc8vQ>'
p236
tp237
Rp238
g1
(g16
S'\x00\x00\x008\xdf8\xe6?'
p239
tp240
Rp241
tp242
sI1587
(g1
(g5
S'\xf7\xa5z='
p243
tp244
Rp245
g1
(g5
S'"0">'
p246
tp247
Rp248
g1
(g16
S'\x00\x00\x00\x023\xf9\xe8?'
p249
tp250
Rp251
tp252
sI5173
(g1
(g5
S'\x87\xf3\xd6='
p253
tp254
Rp255
g1
(g5
S'&\x07U>'
p256
tp257
Rp258
g1
(g16
S'\x00\x00\x00\xb4\xf8\xfb\xe5?'
p259
tp260
Rp261
tp262
sI7452
(g1
(g5
S'\xda\xbbM='
p263
tp264
Rp265
g1
(g5
S'g\\\x15>'
p266
tp267
Rp268
g1
(g16
S'\x00\x00\x00\x14\xa5\xb9\xe9?'
p269
tp270
Rp271
tp272
sI6153
(g1
(g5
S'\xa0\xe6N='
p273
tp274
Rp275
g1
(g5
S'\xdf\xa9\x0f>'
p276
tp277
Rp278
g1
(g16
S'\x00\x00\x00\xc8\xe3\xe4\xe9?'
p279
tp280
Rp281
tp282
sI4666
(g1
(g5
S'\xb2i\x04>'
p283
tp284
Rp285
g1
(g5
S'\xa3\xe0w>'
p286
tp287
Rp288
g1
(g16
S'\x00\x00\x00X\xad\x1d\xe4?'
p289
tp290
Rp291
tp292
sI1375
(g1
(g5
S' 7-='
p293
tp294
Rp295
g1
(g5
S']\x8e\x03>'
p296
tp297
Rp298
g1
(g16
S'\x00\x00\x00\xd8\x1e\x89\xea?'
p299
tp300
Rp301
tp302
sI6154
(g1
(g5
S'\xbc\x1cm='
p303
tp304
Rp305
g1
(g5
S'\xea\xde\x1b>'
p306
tp307
Rp308
g1
(g16
S'\x00\x00\x008\xcfF\xe9?'
p309
tp310
Rp311
tp312
sI7742
(g1
(g5
S'\xf0]\x15='
p313
tp314
Rp315
g1
(g5
S'\xeb\x12\xf1='
p316
tp317
Rp318
g1
(g16
S'\x00\x00\x00t\xf8\x10\xeb?'
p319
tp320
Rp321
tp322
sI6719
(g1
(g5
S'\xc4<_='
p323
tp324
Rp325
g1
(g5
S'F1\x13>'
p326
tp327
Rp328
g1
(g16
S'\x00\x00\x00H\xfc\xa7\xe9?'
p329
tp330
Rp331
tp332
sI7744
(g1
(g5
S'!Up='
p333
tp334
Rp335
g1
(g5
S'0\x1c!>'
p336
tp337
Rp338
g1
(g16
S'\x00\x00\x00>t\x16\xe9?'
p339
tp340
Rp341
tp342
sI6209
(g1
(g5
S'\xb0\xf0M='
p343
tp344
Rp345
g1
(g5
S'\x9e&\x16>'
p346
tp347
Rp348
g1
(g16
S'\x00\x00\x00\xb0\xe9\xb2\xe9?'
p349
tp350
Rp351
tp352
sI5702
(g1
(g5
S'9]j='
p353
tp354
Rp355
g1
(g5
S'Sc\x18>'
p356
tp357
Rp358
g1
(g16
S'\x00\x00\x00\xf6*h\xe9?'
p359
tp360
Rp361
tp362
sI2634
(g1
(g5
S'z\xd5\xe2='
p363
tp364
Rp365
g1
(g5
S'\x0er=>'
p366
tp367
Rp368
g1
(g16
S'\x00\x00\x00\xa8\x19\x89\xe6?'
p369
tp370
Rp371
tp372
sI2123
(g1
(g5
S'u\xc1|='
p373
tp374
Rp375
g1
(g5
S'\x07\x13\x0e>'
p376
tp377
Rp378
g1
(g16
S'\x00\x00\x00\xde\xe4\x95\xe9?'
p379
tp380
Rp381
tp382
sI2124
(g1
(g5
S'w\xba\xad='
p383
tp384
Rp385
g1
(g5
S'\xe6\x16#>'
p386
tp387
Rp388
g1
(g16
S'\x00\x00\x00\xf4^0\xe8?'
p389
tp390
Rp391
tp392
sI5709
(g1
(g5
S'.b\xb5='
p393
tp394
Rp395
g1
(g5
S'A\x81C>'
p396
tp397
Rp398
g1
(g16
S'\x00\x00\x00@m\x0e\xe7?'
p399
tp400
Rp401
tp402
sI5198
(g1
(g5
S'y\x8f0='
p403
tp404
Rp405
g1
(g5
S'g2\x08>'
p406
tp407
Rp408
g1
(g16
S'\x00\x00\x00\xd6M]\xea?'
p409
tp410
Rp411
tp412
sI7760
(g1
(g5
S'W\x7f\xb9='
p413
tp414
Rp415
g1
(g5
S'\xdb\xa90>'
p416
tp417
Rp418
g1
(g16
S'\x00\x00\x00\xcc\xb3\x94\xe7?'
p419
tp420
Rp421
tp422
sI1620
(g1
(g5
S'\xe8e\x8a='
p423
tp424
Rp425
g1
(g5
S'\xca\x0c0>'
p426
tp427
Rp428
g1
(g16
S'\x00\x00\x00\x10\x02V\xe8?'
p429
tp430
Rp431
tp432
sI8668
(g1
(g5
S'\xf4\xdb\xa0='
p433
tp434
Rp435
g1
(g5
S'4{(>'
p436
tp437
Rp438
g1
(g16
S'\x00\x00\x00\x90\xb68\xe8?'
p439
tp440
Rp441
tp442
sI3160
(g1
(g5
S'\xe4\x92\x84='
p443
tp444
Rp445
g1
(g5
S'O\xbd\x1e>'
p446
tp447
Rp448
g1
(g16
S'\x00\x00\x00\xf8\xc9\xf7\xe8?'
p449
tp450
Rp451
tp452
sI7769
(g1
(g5
S'\xbcnr='
p453
tp454
Rp455
g1
(g5
S'\xe2\xdf\x1f>'
p456
tp457
Rp458
g1
(g16
S'\x00\x00\x00x#\x1c\xe9?'
p459
tp460
Rp461
tp462
sI2138
(g1
(g5
S'r6\x94='
p463
tp464
Rp465
g1
(g5
S'\xc0z8>'
p466
tp467
Rp468
g1
(g16
S'\x00\x00\x008P\xeb\xe7?'
p469
tp470
Rp471
tp472
sI5903
(g1
(g5
S'\xf0\xa2f='
p473
tp474
Rp475
g1
(g5
S'\x85\xac\x1e>'
p476
tp477
Rp478
g1
(g16
S'\x00\x00\x00\xf8U=\xe9?'
p479
tp480
Rp481
tp482
sI4702
(g1
(g5
S'r;\x0e>'
p483
tp484
Rp485
g1
(g5
S'5^S>'
p486
tp487
Rp488
g1
(g16
S'\x00\x00\x00\xc82\xf3\xe4?'
p489
tp490
Rp491
tp492
sI8293
(g1
(g5
S'\xea\xf3\x9e='
p493
tp494
Rp495
g1
(g5
S"\xce\xb0'>"
p496
tp497
Rp498
g1
(g16
S'\x00\x00\x00\xe8\xa9F\xe8?'
p499
tp500
Rp501
tp502
sI6244
(g1
(g5
S'\x19t$='
p503
tp504
Rp505
g1
(g5
S'MN\xe7='
p506
tp507
Rp508
g1
(g16
S'\x00\x00\x00\x9a\xde\x19\xeb?'
p509
tp510
Rp511
tp512
sI6245
(g1
(g5
S'\xcf\xf1\xa6='
p513
tp514
Rp515
g1
(g5
S'\xf1\xa5,>'
p516
tp517
Rp518
g1
(g16
S'\x00\x00\x00<\t\xff\xe7?'
p519
tp520
Rp521
tp522
sI5735
(g1
(g5
S'\xbcnr='
p523
tp524
Rp525
g1
(g5
S'\xe2\xdf\x1f>'
p526
tp527
Rp528
g1
(g16
S'\x00\x00\x00x#\x1c\xe9?'
p529
tp530
Rp531
tp532
sI5737
(g1
(g5
S'\x04\xce\x83='
p533
tp534
Rp535
g1
(g5
S"\x14\xd5'>"
p536
tp537
Rp538
g1
(g16
S'\x00\x00\x00P\x1f\xb2\xe8?'
p539
tp540
Rp541
tp542
sI106
(g1
(g5
S'\xad\xe9[='
p543
tp544
Rp545
g1
(g5
S'&\x14\x12>'
p546
tp547
Rp548
g1
(g16
S'\x00\x00\x00v\x8b\xb7\xe9?'
p549
tp550
Rp551
tp552
sI7539
(g1
(g5
S'[H\xd9='
p553
tp554
Rp555
g1
(g5
S'4T4>'
p556
tp557
Rp558
g1
(g16
S'\x00\x00\x00\xf4<\xf8\xe6?'
p559
tp560
Rp561
tp562
sI5743
(g1
(g5
S'^\xc1L='
p563
tp564
Rp565
g1
(g5
S'\x01F\x11>'
p566
tp567
Rp568
g1
(g16
S'\x00\x00\x00<M\xdc\xe9?'
p569
tp570
Rp571
tp572
sI5744
(g1
(g5
S'|\xcaX='
p573
tp574
Rp575
g1
(g5
S'\x8f\xd9\x15>'
p576
tp577
Rp578
g1
(g16
S'\x00\x00\x00\x90\x9e\x9f\xe9?'
p579
tp580
Rp581
tp582
sI7187
(g1
(g5
S'\xa6\xaa\xa5='
p583
tp584
Rp585
g1
(g5
S'\x00.8>'
p586
tp587
Rp588
g1
(g16
S'\x00\x00\x00h\xe5\xa7\xe7?'
p589
tp590
Rp591
tp592
sI5804
(g1
(g5
S']L\x19='
p593
tp594
Rp595
g1
(g5
S'\xaa\xf3\x02>'
p596
tp597
Rp598
g1
(g16
S'\x00\x00\x00\xf6\xc9\xb5\xea?'
p599
tp600
Rp601
tp602
sI8041
(g1
(g5
S'\x96\xd6\xa5='
p603
tp604
Rp605
g1
(g5
S'\xa9Z;>'
p606
tp607
Rp608
g1
(g16
S'\x00\x00\x00`\xd0\x8d\xe7?'
p609
tp610
Rp611
tp612
sI4730
(g1
(g5
S'3\xd7\x83='
p613
tp614
Rp615
g1
(g5
S'l\n">'
p616
tp617
Rp618
g1
(g16
S'\x00\x00\x00\xd4O\xe0\xe8?'
p619
tp620
Rp621
tp622
sI637
(g1
(g5
S'\xc1(\x88='
p623
tp624
Rp625
g1
(g5
S'qi,>'
p626
tp627
Rp628
g1
(g16
S'\x00\x00\x00t\x11|\xe8?'
p629
tp630
Rp631
tp632
sI4223
(g1
(g5
S'H\x07\xa2='
p633
tp634
Rp635
g1
(g5
S'b\xb8$>'
p636
tp637
Rp638
g1
(g16
S'\x00\x00\x00\xd0\x1fR\xe8?'
p639
tp640
Rp641
tp642
sI2176
(g1
(g5
S'"\xaa\x16='
p643
tp644
Rp645
g1
(g5
S'\x1a\xcf\xf8='
p646
tp647
Rp648
g1
(g16
S'\x00\x00\x00To\xef\xea?'
p649
tp650
Rp651
tp652
sI8043
(g1
(g5
S'\x00\x97\x03>'
p653
tp654
Rp655
g1
(g5
S'_\xa6,>'
p656
tp657
Rp658
g1
(g16
S'\x00\x00\x00\x08\x15~\xe6?'
p659
tp660
Rp661
tp662
sI7816
(g1
(g5
S'#\x04L='
p663
tp664
Rp665
g1
(g5
S'\x03C\x12>'
p666
tp667
Rp668
g1
(g16
S'\x00\x00\x00\xa2\xdf\xd5\xe9?'
p669
tp670
Rp671
tp672
sI8044
(g1
(g5
S'\x00\x97\x03>'
p673
tp674
Rp675
g1
(g5
S'_\xa6,>'
p676
tp677
Rp678
g1
(g16
S'\x00\x00\x00\x08\x15~\xe6?'
p679
tp680
Rp681
tp682
sI4234
(g1
(g5
S'\xb3\x96\x85='
p683
tp684
Rp685
g1
(g5
S'\xd2\xf6$>'
p686
tp687
Rp688
g1
(g16
S'\x00\x00\x00\xa4\xee\xc1\xe8?'
p689
tp690
Rp691
tp692
sI3215
(g1
(g5
S'<b|='
p693
tp694
Rp695
g1
(g5
S'\x88\x9d,>'
p696
tp697
Rp698
g1
(g16
S'\x00\x00\x00HO\xa2\xe8?'
p699
tp700
Rp701
tp702
sI9194
(g1
(g5
S'\xbf\nV='
p703
tp704
Rp705
g1
(g5
S'\xee\x1f\x15>'
p706
tp707
Rp708
g1
(g16
S'\x00\x00\x00\x12\xeb\xaa\xe9?'
p709
tp710
Rp711
tp712
sI3218
(g1
(g5
S'\x95]?='
p713
tp714
Rp715
g1
(g5
S'0\x81\x14>'
p716
tp717
Rp718
g1
(g16
S'\x00\x00\x00V;\xdd\xe9?'
p719
tp720
Rp721
tp722
sI6803
(g1
(g5
S'\x82\xb1\x84='
p723
tp724
Rp725
g1
(g5
S'\x07\xc7)>'
p726
tp727
Rp728
g1
(g16
S'\x00\x00\x00\xc0\x01\x9f\xe8?'
p729
tp730
Rp731
tp732
sI153
(g1
(g5
S'\xa76q='
p733
tp734
Rp735
g1
(g5
S'\xd7\xc1\x1b>'
p736
tp737
Rp738
g1
(g16
S'\x00\x00\x00\xfa\x83?\xe9?'
p739
tp740
Rp741
tp742
sI8861
(g1
(g5
S'\xedL\x87='
p743
tp744
Rp745
g1
(g5
S'\xf1\x8e/>'
p746
tp747
Rp748
g1
(g16
S'\x00\x00\x00\xc4Tf\xe8?'
p749
tp750
Rp751
tp752
sI7330
(g1
(g5
S'\xd4\t\xb6='
p753
tp754
Rp755
g1
(g5
S'l\x1e)>'
p756
tp757
Rp758
g1
(g16
S'\x00\x00\x00P\xe5\xde\xe7?'
p759
tp760
Rp761
tp762
sI8868
(g1
(g5
S'\xedG\x86='
p763
tp764
Rp765
g1
(g5
S'f\xd2.>'
p766
tp767
Rp768
g1
(g16
S'\x00\x00\x00\x1cMp\xe8?'
p769
tp770
Rp771
tp772
sI369
(g1
(g5
S'y\xb9&='
p773
tp774
Rp775
g1
(g5
S'l\x94\xf9='
p776
tp777
Rp778
g1
(g16
S'\x00\x00\x00^;\xcc\xea?'
p779
tp780
Rp781
tp782
sI5288
(g1
(g5
S'\xe1\xc2V='
p783
tp784
Rp785
g1
(g5
S'\x91\xe4\x0f>'
p786
tp787
Rp788
g1
(g16
S'\x00\x00\x00\xb6U\xd3\xe9?'
p789
tp790
Rp791
tp792
sI1193
(g1
(g5
S'\xfb\xfb\x80='
p793
tp794
Rp795
g1
(g5
S'7\xf7\x05>'
p796
tp797
Rp798
g1
(g16
S'\x00\x00\x00\\V\xcc\xe9?'
p799
tp800
Rp801
tp802
sI4266
(g1
(g5
S";\xb0'="
p803
tp804
Rp805
g1
(g5
S's\x7f\x07>'
p806
tp807
Rp808
g1
(g16
S'\x00\x00\x00\xf2\xa3t\xea?'
p809
tp810
Rp811
tp812
sI1195
(g1
(g5
S'\xb5>\xa0='
p813
tp814
Rp815
g1
(g5
S'\x9b\xe1&>'
p816
tp817
Rp818
g1
(g16
S'\x00\x00\x00T\xf8G\xe8?'
p819
tp820
Rp821
tp822
sI2220
(g1
(g5
S'\xd5\xe6\xa2='
p823
tp824
Rp825
g1
(g5
S'\xc6\x928>'
p826
tp827
Rp828
g1
(g16
S'\x00\x00\x00|\xce\xaf\xe7?'
p829
tp830
Rp831
tp832
sI4269
(g1
(g5
S'\xf82t='
p833
tp834
Rp835
g1
(g5
S'Q\x12&>'
p836
tp837
Rp838
g1
(g16
S'\x00\x00\x00\x88\x07\xe7\xe8?'
p839
tp840
Rp841
tp842
sI6318
(g1
(g5
S'\x8c\xe50>'
p843
tp844
Rp845
g1
(g5
S'\x06\x81e>'
p846
tp847
Rp848
g1
(g16
S'\x00\x00\x00p\xcbL\xe3?'
p849
tp850
Rp851
tp852
sI7780
(g1
(g5
S'\xd4[^='
p853
tp854
Rp855
g1
(g5
S'gE\x1f>'
p856
tp857
Rp858
g1
(g16
S'\x00\x00\x00 \x1dI\xe9?'
p859
tp860
Rp861
tp862
sI7027
(g1
(g5
S'B\xd4\x8d='
p863
tp864
Rp865
g1
(g5
S'\x9fz+>'
p866
tp867
Rp868
g1
(g16
S'\x00\x00\x00\x00\xdal\xe8?'
p869
tp870
Rp871
tp872
sI183
(g1
(g5
S'l\xa2n='
p873
tp874
Rp875
g1
(g5
S'U\xe1\x1b>'
p876
tp877
Rp878
g1
(g16
S'\x00\x00\x00\x80\xb0C\xe9?'
p879
tp880
Rp881
tp882
sI7864
(g1
(g5
S'3$s='
p883
tp884
Rp885
g1
(g5
S'\x15^%>'
p886
tp887
Rp888
g1
(g16
S'\x00\x00\x00\xf2\xc6\xee\xe8?'
p889
tp890
Rp891
tp892
sI5307
(g1
(g5
S'\x0f!\x88='
p893
tp894
Rp895
g1
(g5
S'@\xca >'
p896
tp897
Rp898
g1
(g16
S'\x00\x00\x00\xc4)\xd9\xe8?'
p899
tp900
Rp901
tp902
sI7356
(g1
(g5
S'M\xd8\xd1='
p903
tp904
Rp905
g1
(g5
S'\xab\xabE>'
p906
tp907
Rp908
g1
(g16
S'\x00\x00\x00tA\x8b\xe6?'
p909
tp910
Rp911
tp912
sI5310
(g1
(g5
S'\xb4\xdf\x97='
p913
tp914
Rp915
g1
(g5
S'6w+>'
p916
tp917
Rp918
g1
(g16
S'\x00\x00\x00\x80\xc7D\xe8?'
p919
tp920
Rp921
tp922
sI5824
(g1
(g5
S'\xfd\xb2^='
p923
tp924
Rp925
g1
(g5
S'c\x1a\x03>'
p926
tp927
Rp928
g1
(g16
S'\x00\x00\x00\xee\xc6)\xea?'
p929
tp930
Rp931
tp932
sI8385
(g1
(g5
S'b\r\xbf='
p933
tp934
Rp935
g1
(g5
S'9\x1e+>'
p936
tp937
Rp938
g1
(g16
S'\x00\x00\x00\xb0\xd8\xaa\xe7?'
p939
tp940
Rp941
tp942
sI8386
(g1
(g5
S'+{\xf5='
p943
tp944
Rp945
g1
(g5
S'I]E>'
p946
tp947
Rp948
g1
(g16
S'\x00\x00\x00\x0c)\xff\xe5?'
p949
tp950
Rp951
tp952
sI7366
(g1
(g5
S'\x0f\\\x96='
p953
tp954
Rp955
g1
(g5
S'\xd6\x90.>'
p956
tp957
Rp958
g1
(g16
S'\x00\x00\x00\x14\t2\xe8?'
p959
tp960
Rp961
tp962
sI6451
(g1
(g5
S'\xf0\xe2\x0e='
p963
tp964
Rp965
g1
(g5
S'\x96k\xe2='
p966
tp967
Rp968
g1
(g16
S'\x00\x00\x00\xc8\x8bX\xeb?'
p969
tp970
Rp971
tp972
sI4298
(g1
(g5
S'\xf03\x84='
p973
tp974
Rp975
g1
(g5
S'\x9e\x08+>'
p976
tp977
Rp978
g1
(g16
S'\x00\x00\x00P\xeb\x96\xe8?'
p979
tp980
Rp981
tp982
sI4299
(g1
(g5
S'|o\xea='
p983
tp984
Rp985
g1
(g5
S'\xdc\x08k>'
p986
tp987
Rp988
g1
(g16
S'\x00\x00\x000\xfb\xfd\xe4?'
p989
tp990
Rp991
tp992
sI2765
(g1
(g5
S' |&='
p993
tp994
Rp995
g1
(g5
S'W\x1e\x04>'
p996
tp997
Rp998
g1
(g16
S'\x00\x00\x00\x08\x15\x92\xea?'
p999
tp1000
Rp1001
tp1002
sI4814
(g1
(g5
S'\x1dYv='
p1003
tp1004
Rp1005
g1
(g5
S'\xfa\x0f*>'
p1006
tp1007
Rp1008
g1
(g16
S'\x00\x00\x00\xf6\xcd\xc2\xe8?'
p1009
tp1010
Rp1011
tp1012
sI1743
(g1
(g5
S'\xb9C\xfc<'
p1013
tp1014
Rp1015
g1
(g5
S'\xf4W\xdb='
p1016
tp1017
Rp1018
g1
(g16
S'\x00\x00\x00w\\\x96\xeb?'
p1019
tp1020
Rp1021
tp1022
sI8912
(g1
(g5
S'\x0e\x9al>'
p1023
tp1024
Rp1025
g1
(g5
S'7\xe5^>'
p1026
tp1027
Rp1028
g1
(g16
S'\x00\x00\x00\xd8\x05\xa4\xe1?'
p1029
tp1030
Rp1031
tp1032
sI2766
(g1
(g5
S'\xfb\x97\xa7='
p1033
tp1034
Rp1035
g1
(g5
S'\xe3X9>'
p1036
tp1037
Rp1038
g1
(g16
S'\x00\x00\x00\xfc\xd8\x96\xe7?'
p1039
tp1040
Rp1041
tp1042
sI4828
(g1
(g5
S'\x92\xf9^='
p1043
tp1044
Rp1045
g1
(g5
S'\xedR\t>'
p1046
tp1047
Rp1048
g1
(g16
S'\x00\x00\x00tu\xf7\xe9?'
p1049
tp1050
Rp1051
tp1052
sI634
(g1
(g5
S'x\x88p='
p1053
tp1054
Rp1055
g1
(g5
S'\xe3\xf9 >'
p1056
tp1057
Rp1058
g1
(g16
S'\x00\x00\x00\xf8\x1f\x17\xe9?'
p1059
tp1060
Rp1061
tp1062
sI7390
(g1
(g5
S')>\xa3='
p1063
tp1064
Rp1065
g1
(g5
S'\xcd\xcd.>'
p1066
tp1067
Rp1068
g1
(g16
S'\x00\x00\x00\xf4\x98\xfc\xe7?'
p1069
tp1070
Rp1071
tp1072
sI2275
(g1
(g5
S'\xab)i='
p1073
tp1074
Rp1075
g1
(g5
S'+7#>'
p1076
tp1077
Rp1078
g1
(g16
S'\x00\x00\x00R\xf3\x13\xe9?'
p1079
tp1080
Rp1081
tp1082
sI2276
(g1
(g5
S'i5"='
p1083
tp1084
Rp1085
g1
(g5
S'\xcd]\x06>'
p1086
tp1087
Rp1088
g1
(g16
S'\x00\x00\x00\xc6\xa6\x88\xea?'
p1089
tp1090
Rp1091
tp1092
sI7910
(g1
(g5
S'\\I\x80='
p1093
tp1094
Rp1095
g1
(g5
S'\x1c\xc8#>'
p1096
tp1097
Rp1098
g1
(g16
S'\x00\x00\x00\xb0\x99\xe0\xe8?'
p1099
tp1100
Rp1101
tp1102
sI6524
(g1
(g5
S'\xd7%\x8a='
p1103
tp1104
Rp1105
g1
(g5
S'z\x914>'
p1106
tp1107
Rp1108
g1
(g16
S'\x00\x00\x00\xd4\xdc2\xe8?'
p1109
tp1110
Rp1111
tp1112
sI3818
(g1
(g5
S'\xcbR\xa0='
p1113
tp1114
Rp1115
g1
(g5
S'\xf2h\x18>'
p1116
tp1117
Rp1118
g1
(g16
S'\x00\x00\x00Dm\xbb\xe8?'
p1119
tp1120
Rp1121
tp1122
sI8658
(g1
(g5
S'5\x04\xab='
p1123
tp1124
Rp1125
g1
(g5
S'G\xa30>'
p1126
tp1127
Rp1128
g1
(g16
S'\x00\x00\x00\xf4\xd4\xce\xe7?'
p1129
tp1130
Rp1131
tp1132
sI7409
(g1
(g5
S'\xfbD\xa1='
p1133
tp1134
Rp1135
g1
(g5
S'r!\x12>'
p1136
tp1137
Rp1138
g1
(g16
S'\x00\x00\x00\x84\xe0\xe9\xe8?'
p1139
tp1140
Rp1141
tp1142
sI7922
(g1
(g5
S'yG\x8d='
p1143
tp1144
Rp1145
g1
(g5
S'\xc0\xc9/>'
p1146
tp1147
Rp1148
g1
(g16
S'\x00\x00\x00\x1c\x94L\xe8?'
p1149
tp1150
Rp1151
tp1152
sI2291
(g1
(g5
S"\x80'\xca="
p1153
tp1154
Rp1155
g1
(g5
S'\xf6\xc2K>'
p1156
tp1157
Rp1158
g1
(g16
S'\x00\x00\x00PJy\xe6?'
p1159
tp1160
Rp1161
tp1162
sI7924
(g1
(g5
S'+\x82\x8c='
p1163
tp1164
Rp1165
g1
(g5
S'E*/>'
p1166
tp1167
Rp1168
g1
(g16
S'\x00\x00\x00,\xa5T\xe8?'
p1169
tp1170
Rp1171
tp1172
sI7339
(g1
(g5
S'}\xa6\x81='
p1173
tp1174
Rp1175
g1
(g5
S'85*>'
p1176
tp1177
Rp1178
g1
(g16
S'\x00\x00\x00L\xbc\xa7\xe8?'
p1179
tp1180
Rp1181
tp1182
sI5417
(g1
(g5
S'\x04\xf8\xc4='
p1183
tp1184
Rp1185
g1
(g5
S'\xcf\xc8?>'
p1186
tp1187
Rp1188
g1
(g16
S'\x00\x00\x00x\xd9\xed\xe6?'
p1189
tp1190
Rp1191
tp1192
sI5822
(g1
(g5
S'\xd1n->'
p1193
tp1194
Rp1195
g1
(g5
S'\x89fl>'
p1196
tp1197
Rp1198
g1
(g16
S'\x00\x00\x000U1\xe3?'
p1199
tp1200
Rp1201
tp1202
sI4224
(g1
(g5
S'\xe6\xdb\xb2='
p1203
tp1204
Rp1205
g1
(g5
S'\x8d\x17/>'
p1206
tp1207
Rp1208
g1
(g16
S'\x00\x00\x00\x00\xd4\xbb\xe7?'
p1209
tp1210
Rp1211
tp1212
sI3844
(g1
(g5
S'\xa0]\x11='
p1213
tp1214
Rp1215
g1
(g5
S':2\xe4='
p1216
tp1217
Rp1218
g1
(g16
S'\x00\x00\x00\xd8{L\xeb?'
p1219
tp1220
Rp1221
tp1222
sI8151
(g1
(g5
S'\x9f\xc0\xb7='
p1223
tp1224
Rp1225
g1
(g5
S't\xbc)>'
p1226
tp1227
Rp1228
g1
(g16
S'\x00\x00\x00\xe4\x19\xd3\xe7?'
p1229
tp1230
Rp1231
tp1232
sI5677
(g1
(g5
S'\xa2\xa8\x86='
p1233
tp1234
Rp1235
g1
(g5
S'\r\x81&>'
p1236
tp1237
Rp1238
g1
(g16
S'\x00\x00\x00\x10U\xb1\xe8?'
p1239
tp1240
Rp1241
tp1242
sI1296
(g1
(g5
S't\x1fD='
p1243
tp1244
Rp1245
g1
(g5
S'\xdcU\x0e>'
p1246
tp1247
Rp1248
g1
(g16
S'\x00\x00\x008\x12\x05\xea?'
p1249
tp1250
Rp1251
tp1252
sI7640
(g1
(g5
S'\xd9\x92x='
p1253
tp1254
Rp1255
g1
(g5
S'\xd5\xa9#>'
p1256
tp1257
Rp1258
g1
(g16
S'\x00\x00\x00\xa6\x8b\xf1\xe8?'
p1259
tp1260
Rp1261
tp1262
sI3859
(g1
(g5
S'A\xd3\x1a='
p1263
tp1264
Rp1265
g1
(g5
S'\xd2\x15\xf0='
p1266
tp1267
Rp1268
g1
(g16
S'\x00\x00\x006\x02\n\xeb?'
p1269
tp1270
Rp1271
tp1272
sI7988
(g1
(g5
S'~\xa6q='
p1273
tp1274
Rp1275
g1
(g5
S'W9\x1d>'
p1276
tp1277
Rp1278
g1
(g16
S'\x00\x00\x00L\xe82\xe9?'
p1279
tp1280
Rp1281
tp1282
sI6936
(g1
(g5
S'\x08Bz='
p1283
tp1284
Rp1285
g1
(g5
S'M\xdd!>'
p1286
tp1287
Rp1288
g1
(g16
S'\x00\x00\x00\x88\x91\xfc\xe8?'
p1289
tp1290
Rp1291
tp1292
sI5401
(g1
(g5
S'\x88\x0e\x82='
p1293
tp1294
Rp1295
g1
(g5
S'\xa6X\x1f>'
p1296
tp1297
Rp1298
g1
(g16
S'\x00\x00\x00\xb0\x00\xfd\xe8?'
p1299
tp1300
Rp1301
tp1302
sI3866
(g1
(g5
S'\xf9\x86D='
p1303
tp1304
Rp1305
g1
(g5
S'!\xd4\t>'
p1306
tp1307
Rp1308
g1
(g16
S'\x00\x00\x00\x06Q(\xea?'
p1309
tp1310
Rp1311
tp1312
sI4380
(g1
(g5
S'\xb3M\x99='
p1313
tp1314
Rp1315
g1
(g5
S'k\x810>'
p1316
tp1317
Rp1318
g1
(g16
S'\x00\x00\x00\xdc\xbd\x16\xe8?'
p1319
tp1320
Rp1321
tp1322
sI3875
(g1
(g5
S'l\xe4\x8b='
p1323
tp1324
Rp1325
g1
(g5
S'\xf8]">'
p1326
tp1327
Rp1328
g1
(g16
S'\x00\x00\x00\x90~\xbd\xe8?'
p1329
tp1330
Rp1331
tp1332
sI3877
(g1
(g5
S'\x16uq='
p1333
tp1334
Rp1335
g1
(g5
S'r\xbc!>'
p1336
tp1337
Rp1338
g1
(g16
S'\x00\x00\x00D2\x0f\xe9?'
p1339
tp1340
Rp1341
tp1342
sI5415
(g1
(g5
S'S]\xe6='
p1343
tp1344
Rp1345
g1
(g5
S'ZkP>'
p1346
tp1347
Rp1348
g1
(g16
S'\x00\x00\x00\xe4/\xe3\xe5?'
p1349
tp1350
Rp1351
tp1352
sI8661
(g1
(g5
S'\xf5\\\xa2='
p1353
tp1354
Rp1355
g1
(g5
S'\x7fk*>'
p1356
tp1357
Rp1358
g1
(g16
S'\x00\x00\x0040#\xe8?'
p1359
tp1360
Rp1361
tp1362
sI297
(g1
(g5
S'la\x08='
p1363
tp1364
Rp1365
g1
(g5
S'Z\xcf\xf2='
p1366
tp1367
Rp1368
g1
(g16
S'\x00\x00\x00\xc0\xff#\xeb?'
p1369
tp1370
Rp1371
tp1372
sI2859
(g1
(g5
S'\x87\x95j='
p1373
tp1374
Rp1375
g1
(g5
S'\xa7\xeb\x18>'
p1376
tp1377
Rp1378
g1
(g16
S'\x00\x00\x00\xbawc\xe9?'
p1379
tp1380
Rp1381
tp1382
sI3885
(g1
(g5
S"\xf8'\xa4="
p1383
tp1384
Rp1385
g1
(g5
S'\x1b\x8f1>'
p1386
tp1387
Rp1388
g1
(g16
S'\x00\x00\x00H\xe7\xe2\xe7?'
p1389
tp1390
Rp1391
tp1392
sI6961
(g1
(g5
S'\x06Q\x90='
p1393
tp1394
Rp1395
g1
(g5
S'LA*>'
p1396
tp1397
Rp1398
g1
(g16
S'\x00\x00\x00\x88\xb1l\xe8?'
p1399
tp1400
Rp1401
tp1402
sI6450
(g1
(g5
S'U\xba*='
p1403
tp1404
Rp1405
g1
(g5
S'\xa3?\xfe='
p1406
tp1407
Rp1408
g1
(g16
S'\x00\x00\x00\xca\x8c\xb1\xea?'
p1409
tp1410
Rp1411
tp1412
sI4659
(g1
(g5
S'&6\x11>'
p1413
tp1414
Rp1415
g1
(g5
S'\xc8k|>'
p1416
tp1417
Rp1418
g1
(g16
S'\x00\x00\x00\x90\xf0\x92\xe3?'
p1419
tp1420
Rp1421
tp1422
sI5940
(g1
(g5
S'\xb1|#='
p1423
tp1424
Rp1425
g1
(g5
S'8\xb1\x06>'
p1426
tp1427
Rp1428
g1
(g16
S'\x00\x00\x00\xde|\x83\xea?'
p1429
tp1430
Rp1431
tp1432
sI3895
(g1
(g5
S'Z\xc3}='
p1433
tp1434
Rp1435
g1
(g5
S'\xc7V >'
p1436
tp1437
Rp1438
g1
(g16
S'\x00\x00\x00\x14\xc3\x01\xe9?'
p1439
tp1440
Rp1441
tp1442
sI6969
(g1
(g5
S'\\\xc1\xa7='
p1443
tp1444
Rp1445
g1
(g5
S'\x08\n&>'
p1446
tp1447
Rp1448
g1
(g16
S'\x00\x00\x00P\xaa0\xe8?'
p1449
tp1450
Rp1451
tp1452
sI7135
(g1
(g5
S'`\x96\xe9<'
p1453
tp1454
Rp1455
g1
(g5
S'\xa5#\xd2='
p1456
tp1457
Rp1458
g1
(g16
S'\x00\x00\x00\x0c\xdb\xcd\xeb?'
p1459
tp1460
Rp1461
tp1462
sI4925
(g1
(g5
S'\xe5?P='
p1463
tp1464
Rp1465
g1
(g5
S'Q\x19\x0c>'
p1466
tp1467
Rp1468
g1
(g16
S'\x00\x00\x00\xae\xb5\xfe\xe9?'
p1469
tp1470
Rp1471
tp1472
sI8553
(g1
(g5
S'V\xee\xd8='
p1473
tp1474
Rp1475
g1
(g5
S'\x1e"V>'
p1476
tp1477
Rp1478
g1
(g16
S'\x00\x00\x00\xb85\xeb\xe5?'
p1479
tp1480
Rp1481
tp1482
sI3907
(g1
(g5
S'L)?='
p1483
tp1484
Rp1485
g1
(g5
S'\xe0\xd3\x05>'
p1486
tp1487
Rp1488
g1
(g16
S'\x00\x00\x00h\x0eS\xea?'
p1489
tp1490
Rp1491
tp1492
sI4932
(g1
(g5
S' \xf8\x7f='
p1493
tp1494
Rp1495
g1
(g5
S'\xc8\x94">'
p1496
tp1497
Rp1498
g1
(g16
S'\x00\x00\x00\x80i\xeb\xe8?'
p1499
tp1500
Rp1501
tp1502
sI6982
(g1
(g5
S'\t\xc1i='
p1503
tp1504
Rp1505
g1
(g5
S',\xc2\x1b>'
p1506
tp1507
Rp1508
g1
(g16
S'\x00\x00\x00\x8elN\xe9?'
p1509
tp1510
Rp1511
tp1512
sI6472
(g1
(g5
S'\xab\x1db='
p1513
tp1514
Rp1515
g1
(g5
S'\xe6\xa0%>'
p1516
tp1517
Rp1518
g1
(g16
S'\x00\x00\x00z\xbd\x0e\xe9?'
p1519
tp1520
Rp1521
tp1522
sI8162
(g1
(g5
S'\x06\xfa\xc5='
p1523
tp1524
Rp1525
g1
(g5
S'5\x100>'
p1526
tp1527
Rp1528
g1
(g16
S'\x00\x00\x00@\x96g\xe7?'
p1529
tp1530
Rp1531
tp1532
sI2898
(g1
(g5
S'w"{='
p1533
tp1534
Rp1535
g1
(g5
S'\xf5\x1f!>'
p1536
tp1537
Rp1538
g1
(g16
S'\x00\x00\x00j\xbb\x00\xe9?'
p1539
tp1540
Rp1541
tp1542
sI6371
(g1
(g5
S'\xde\x878='
p1543
tp1544
Rp1545
g1
(g5
S'{P\x0f>'
p1546
tp1547
Rp1548
g1
(g16
S'\x00\x00\x00ll\x14\xea?'
p1549
tp1550
Rp1551
tp1552
sI9030
(g1
(g5
S'0\x8a\x88='
p1553
tp1554
Rp1555
g1
(g5
S'sM.>'
p1556
tp1557
Rp1558
g1
(g16
S'\x00\x00\x00\xa8kk\xe8?'
p1559
tp1560
Rp1561
tp1562
sI341
(g1
(g5
S'\xd2\xd9\xd1='
p1563
tp1564
Rp1565
g1
(g5
S'\xc9\xacF>'
p1566
tp1567
Rp1568
g1
(g16
S'\x00\x00\x00p2\x83\xe6?'
p1569
tp1570
Rp1571
tp1572
sI1878
(g1
(g5
S'\x8e\xf6j='
p1573
tp1574
Rp1575
g1
(g5
S'\x17\xb9\x19>'
p1576
tp1577
Rp1578
g1
(g16
S'\x00\x00\x00,J\\\xe9?'
p1579
tp1580
Rp1581
tp1582
sI6487
(g1
(g5
S'\xa11\x91='
p1583
tp1584
Rp1585
g1
(g5
S'\xaeO)>'
p1586
tp1587
Rp1588
g1
(g16
S'\x00\x00\x00\x0c\xbcp\xe8?'
p1589
tp1590
Rp1591
tp1592
sI4953
(g1
(g5
S'}\xbe\x80='
p1593
tp1594
Rp1595
g1
(g5
S'\xc9X">'
p1596
tp1597
Rp1598
g1
(g16
S'\x00\x00\x00\xc4?\xea\xe8?'
p1599
tp1600
Rp1601
tp1602
sI8621
(g1
(g5
S'z\xc8I='
p1603
tp1604
Rp1605
g1
(g5
S'\xab.\x12>'
p1606
tp1607
Rp1608
g1
(g16
S'\x00\x00\x00\xb4\xf9\xda\xe9?'
p1609
tp1610
Rp1611
tp1612
sI4958
(g1
(g5
S'\xe3\xe2T='
p1613
tp1614
Rp1615
g1
(g5
S'J\xfe\x11>'
p1616
tp1617
Rp1618
g1
(g16
S'\x00\x00\x00\xeaG\xc6\xe9?'
p1619
tp1620
Rp1621
tp1622
sI4959
(g1
(g5
S'\xa4\xfa\x86='
p1623
tp1624
Rp1625
g1
(g5
S'~\xb8&>'
p1626
tp1627
Rp1628
g1
(g16
S'\x00\x00\x00\x80Q\xae\xe8?'
p1629
tp1630
Rp1631
tp1632
sI8551
(g1
(g5
S'3\xaa\xdb='
p1633
tp1634
Rp1635
g1
(g5
S'\xc3\xe9W>'
p1636
tp1637
Rp1638
g1
(g16
S'\x00\x00\x00\x1c\t\xd2\xe5?'
p1639
tp1640
Rp1641
tp1642
sI1385
(g1
(g5
S'\x92s\x93='
p1643
tp1644
Rp1645
g1
(g5
S'\x88l\x1e>'
p1646
tp1647
Rp1648
g1
(g16
S'\x00\x00\x00x\xcd\xbe\xe8?'
p1649
tp1650
Rp1651
tp1652
sI1387
(g1
(g5
S'\xe1\xe4\xcd='
p1653
tp1654
Rp1655
g1
(g5
S'i\xc0?>'
p1656
tp1657
Rp1658
g1
(g16
S'\x00\x00\x004i\xca\xe6?'
p1659
tp1660
Rp1661
tp1662
sI6508
(g1
(g5
S'\r]\t='
p1663
tp1664
Rp1665
g1
(g5
S'\xeb\x8a\xf1='
p1666
tp1667
Rp1668
g1
(g16
S"\x00\x00\x00:\x1a'\xeb?"
p1669
tp1670
Rp1671
tp1672
sI4975
(g1
(g5
S'P\xe6V='
p1673
tp1674
Rp1675
g1
(g5
S'\x8f\xfa\x15>'
p1676
tp1677
Rp1678
g1
(g16
S'\x00\x00\x00\xe8^\xa2\xe9?'
p1679
tp1680
Rp1681
tp1682
sI3441
(g1
(g5
S'\xbd\x07v='
p1683
tp1684
Rp1685
g1
(g5
S'\x15\xa8\x1e>'
p1686
tp1687
Rp1688
g1
(g16
S'\x00\x00\x00\xde\xaf\x1e\xe9?'
p1689
tp1690
Rp1691
tp1692
sI3987
(g1
(g5
S'\xfa\x1e=='
p1693
tp1694
Rp1695
g1
(g5
S'X\x0c\x0b>'
p1696
tp1697
Rp1698
g1
(g16
S'\x00\x00\x00L_-\xea?'
p1699
tp1700
Rp1701
tp1702
sI3445
(g1
(g5
S' 7-='
p1703
tp1704
Rp1705
g1
(g5
S']\x8e\x03>'
p1706
tp1707
Rp1708
g1
(g16
S'\x00\x00\x00\xd8\x1e\x89\xea?'
p1709
tp1710
Rp1711
tp1712
sI8055
(g1
(g5
S'\x1bl\x01='
p1713
tp1714
Rp1715
g1
(g5
S'\xa3r\xe5='
p1716
tp1717
Rp1718
g1
(g16
S'\x00\x00\x00>]g\xeb?'
p1719
tp1720
Rp1721
tp1722
sI7033
(g1
(g5
S'A;\xa0='
p1723
tp1724
Rp1725
g1
(g5
S'\xb0\xa67>'
p1726
tp1727
Rp1728
g1
(g16
S'\x00\x00\x00|\xdd\xc1\xe7?'
p1729
tp1730
Rp1731
tp1732
sI4986
(g1
(g5
S'\xc3\xe4\x7f='
p1733
tp1734
Rp1735
g1
(g5
S'`\x9d\x07>'
p1736
tp1737
Rp1738
g1
(g16
S'\x00\x00\x00zK\xc3\xe9?'
p1739
tp1740
Rp1741
tp1742
sI4476
(g1
(g5
S'\n\x90\x8e='
p1743
tp1744
Rp1745
g1
(g5
S'{\xe2\t>'
p1746
tp1747
Rp1748
g1
(g16
S'\x00\x00\x00\x00\xacv\xe9?'
p1749
tp1750
Rp1751
tp1752
sI7658
(g1
(g5
S'\xc5\xd0\xb5='
p1753
tp1754
Rp1755
g1
(g5
S'[;F>'
p1756
tp1757
Rp1758
g1
(g16
S'\x00\x00\x00\x14\xe2\xf6\xe6?'
p1759
tp1760
Rp1761
tp1762
sI5504
(g1
(g5
S'iq\xd9='
p1763
tp1764
Rp1765
g1
(g5
S'\xb4\xcc=>'
p1766
tp1767
Rp1768
g1
(g16
S'\x00\x00\x00\xbc\xd4\xab\xe6?'
p1769
tp1770
Rp1771
tp1772
sI6530
(g1
(g5
S'\x85JM='
p1773
tp1774
Rp1775
g1
(g5
S'\xdf\xcd\x1b>'
p1776
tp1777
Rp1778
g1
(g16
S'\x00\x00\x00\xfe\xfb\x86\xe9?'
p1779
tp1780
Rp1781
tp1782
sI7043
(g1
(g5
S'\xa1\x8c\xab='
p1783
tp1784
Rp1785
g1
(g5
S'\xce\xbb>>'
p1786
tp1787
Rp1788
g1
(g16
S'\x00\x00\x00\x0c\xef[\xe7?'
p1789
tp1790
Rp1791
tp1792
sI7560
(g1
(g5
S'k\xad=>'
p1793
tp1794
Rp1795
g1
(g5
S'\x96S\x83>'
p1796
tp1797
Rp1798
g1
(g16
S'\x00\x00\x00H[\xdd\xe1?'
p1799
tp1800
Rp1801
tp1802
sI1932
(g1
(g5
S'\x86\r\xf6='
p1803
tp1804
Rp1805
g1
(g5
S'\xda\xdcm>'
p1806
tp1807
Rp1808
g1
(g16
S'\x00\x00\x00\x18\xe3\xb8\xe4?'
p1809
tp1810
Rp1811
tp1812
sI8077
(g1
(g5
S'\xa9\xf7\x9e='
p1813
tp1814
Rp1815
g1
(g5
S'\xd0\x958>'
p1816
tp1817
Rp1818
g1
(g16
S'\x00\x00\x00\xdcr\xbf\xe7?'
p1819
tp1820
Rp1821
tp1822
sI2451
(g1
(g5
S'\xa89^='
p1823
tp1824
Rp1825
g1
(g5
S'/\xba\x17>'
p1826
tp1827
Rp1828
g1
(g16
S'\x00\x00\x008\xbb\x85\xe9?'
p1829
tp1830
Rp1831
tp1832
sI5526
(g1
(g5
S'\x17Q\x90='
p1833
tp1834
Rp1835
g1
(g5
S'\x8eO#>'
p1836
tp1837
Rp1838
g1
(g16
S'\x00\x00\x004?\xa4\xe8?'
p1839
tp1840
Rp1841
tp1842
sI3482
(g1
(g5
S'\xa43^='
p1843
tp1844
Rp1845
g1
(g5
S'\r\xe8\x13>'
p1846
tp1847
Rp1848
g1
(g16
S'\x00\x00\x00PX\xa4\xe9?'
p1849
tp1850
Rp1851
tp1852
sI5536
(g1
(g5
S'\xb8\xdfG='
p1853
tp1854
Rp1855
g1
(g5
S'\x92\r\xf4='
p1856
tp1857
Rp1858
g1
(g16
S'\x00\x00\x00H\n\xa0\xea?'
p1859
tp1860
Rp1861
tp1862
sI7587
(g1
(g5
S'U\x12/='
p1863
tp1864
Rp1865
g1
(g5
S'\xb2\xc5\xf8='
p1866
tp1867
Rp1868
g1
(g16
S'\x00\x00\x00\x8e\xc4\xbe\xea?'
p1869
tp1870
Rp1871
tp1872
sI7750
(g1
(g5
S'\xae\xe5\xb8='
p1873
tp1874
Rp1875
g1
(g5
S'\xd0!(>'
p1876
tp1877
Rp1878
g1
(g16
S'\x00\x00\x00\xc8Z\xdb\xe7?'
p1879
tp1880
Rp1881
tp1882
sI6061
(g1
(g5
S'p/\xa3='
p1883
tp1884
Rp1885
g1
(g5
S'/}:>'
p1886
tp1887
Rp1888
g1
(g16
S'\x00\x00\x00\xc8X\x9f\xe7?'
p1889
tp1890
Rp1891
tp1892
sI8622
(g1
(g5
S'\xe4\xb0i='
p1893
tp1894
Rp1895
g1
(g5
S'\xfa\x96\x1b>'
p1896
tp1897
Rp1898
g1
(g16
S'\x00\x00\x00h\xe6O\xe9?'
p1899
tp1900
Rp1901
tp1902
sI5040
(g1
(g5
S'\xf3!\x8d='
p1903
tp1904
Rp1905
g1
(g5
S'\t\xf5/>'
p1906
tp1907
Rp1908
g1
(g16
S'\x00\x00\x00\xec\xcfK\xe8?'
p1909
tp1910
Rp1911
tp1912
sI4017
(g1
(g5
S' \xa8\xfe>'
p1913
tp1914
Rp1915
g1
(g5
S'\xadJN>'
p1916
tp1917
Rp1918
g1
(g16
S'\x00\x00\x000QF\xd3?'
p1919
tp1920
Rp1921
tp1922
sI8632
(g1
(g5
S'\xe1\x99\x85='
p1923
tp1924
Rp1925
g1
(g5
S'vX.>'
p1926
tp1927
Rp1928
g1
(g16
S'\x00\x00\x00\xcc\xd4v\xe8?'
p1929
tp1930
Rp1931
tp1932
sI8266
(g1
(g5
S'\x98Hp='
p1933
tp1934
Rp1935
g1
(g5
S'9\x91\x1b>'
p1936
tp1937
Rp1938
g1
(g16
S'\x00\x00\x00\x08\xe5B\xe9?'
p1939
tp1940
Rp1941
tp1942
sI8639
(g1
(g5
S'\x03w\xd3='
p1943
tp1944
Rp1945
g1
(g5
S'C\x9eP>'
p1946
tp1947
Rp1948
g1
(g16
S'\x00\x00\x00\xdc1-\xe6?'
p1949
tp1950
Rp1951
tp1952
sI8130
(g1
(g5
S'\x12L\x95='
p1953
tp1954
Rp1955
g1
(g5
S'=\xa24>'
p1956
tp1957
Rp1958
g1
(g16
S'\x00\x00\x00\xd0\xbd\x05\xe8?'
p1959
tp1960
Rp1961
tp1962
sI8131
(g1
(g5
S']C8>'
p1963
tp1964
Rp1965
g1
(g5
S'\x90;\x92>'
p1966
tp1967
Rp1968
g1
(g16
S'\x00\x00\x00\x18,\x1a\xe1?'
p1969
tp1970
Rp1971
tp1972
sI4039
(g1
(g5
S'Q\x9aW='
p1973
tp1974
Rp1975
g1
(g5
S'\xcc7\x19>'
p1976
tp1977
Rp1978
g1
(g16
S'\x00\x00\x00\xfe\x0c\x87\xe9?'
p1979
tp1980
Rp1981
tp1982
sI6600
(g1
(g5
S'\x01\x87\x97='
p1983
tp1984
Rp1985
g1
(g5
S'1\xbf.>'
p1986
tp1987
Rp1988
g1
(g16
S'\x00\x00\x00t\xea+\xe8?'
p1989
tp1990
Rp1991
tp1992
sI6604
(g1
(g5
S'TB}='
p1993
tp1994
Rp1995
g1
(g5
S'\x128 >'
p1996
tp1997
Rp1998
g1
(g16
S'\x00\x00\x00\xc8\xba\x03\xe9?'
p1999
tp2000
Rp2001
tp2002
sI6221
(g1
(g5
S'\x15E\x87='
p2003
tp2004
Rp2005
g1
(g5
S'\x1c\x82#>'
p2006
tp2007
Rp2008
g1
(g16
S'\x00\x00\x00\xcc\xda\xc6\xe8?'
p2009
tp2010
Rp2011
tp2012
sI7120
(g1
(g5
S'\x9c\xe6y='
p2013
tp2014
Rp2015
g1
(g5
S'\xd4\xe0\x12>'
p2016
tp2017
Rp2018
g1
(g16
S'\x00\x00\x00(,u\xe9?'
p2019
tp2020
Rp2021
tp2022
sI8841
(g1
(g5
S'\xdai\xdc='
p2023
tp2024
Rp2025
g1
(g5
S'\xf9\xdda>'
p2026
tp2027
Rp2028
g1
(g16
S'\x00\x00\x00\xd0h\x7f\xe5?'
p2029
tp2030
Rp2031
tp2032
sI8146
(g1
(g5
S'\xd02A='
p2033
tp2034
Rp2035
g1
(g5
S'y\x0f\x11>'
p2036
tp2037
Rp2038
g1
(g16
S'\x00\x00\x00\x98\x1e\xf5\xe9?'
p2039
tp2040
Rp2041
tp2042
sI7635
(g1
(g5
S'\x86~\xf0<'
p2043
tp2044
Rp2045
g1
(g5
S'\xfbv\xdf='
p2046
tp2047
Rp2048
g1
(g16
S'\x00\x00\x00\x8e\xa5\x91\xeb?'
p2049
tp2050
Rp2051
tp2052
sI5710
(g1
(g5
S'Y\x982='
p2053
tp2054
Rp2055
g1
(g5
S'\x91\x0e\x08>'
p2056
tp2057
Rp2058
g1
(g16
S'\x00\x00\x00\xc6ZZ\xea?'
p2059
tp2060
Rp2061
tp2062
sI7161
(g1
(g5
S'e\xbfg='
p2063
tp2064
Rp2065
g1
(g5
S'1\x02\x19>'
p2066
tp2067
Rp2068
g1
(g16
S'\x00\x00\x00\xaeoh\xe9?'
p2069
tp2070
Rp2071
tp2072
sI4568
(g1
(g5
S'\xde\x82c='
p2073
tp2074
Rp2075
g1
(g5
S'0\x15\x17>'
p2076
tp2077
Rp2078
g1
(g16
S'\x00\x00\x00\xc4P\x80\xe9?'
p2079
tp2080
Rp2081
tp2082
sI8667
(g1
(g5
S'\x9ds\x9b='
p2083
tp2084
Rp2085
g1
(g5
S'F\xd8%>'
p2086
tp2087
Rp2088
g1
(g16
S'\x00\x00\x00\\oc\xe8?'
p2089
tp2090
Rp2091
tp2092
sI8156
(g1
(g5
S'\xc0r\xba='
p2093
tp2094
Rp2095
g1
(g5
S'\xa0\xd0*>'
p2096
tp2097
Rp2098
g1
(g16
S'\x00\x00\x00\x00\xb0\xbf\xe7?'
p2099
tp2100
Rp2101
tp2102
sI8670
(g1
(g5
S'~\xce\xb4='
p2103
tp2104
Rp2105
g1
(g5
S'\x13t5>'
p2106
tp2107
Rp2108
g1
(g16
S'\x00\x00\x00p%\x81\xe7?'
p2109
tp2110
Rp2111
tp2112
sI3039
(g1
(g5
S'h[\x12='
p2113
tp2114
Rp2115
g1
(g5
S'\xa9\xc6\xed='
p2116
tp2117
Rp2118
g1
(g16
S'\x00\x00\x00\x8c.$\xeb?'
p2119
tp2120
Rp2121
tp2122
sI8160
(g1
(g5
S'\xb29\xc2='
p2123
tp2124
Rp2125
g1
(g5
S'i\xd6.>'
p2126
tp2127
Rp2128
g1
(g16
S'\x00\x00\x00\xf0e\x80\xe7?'
p2129
tp2130
Rp2131
tp2132
sI3554
(g1
(g5
S'k\xedt>'
p2133
tp2134
Rp2135
g1
(g5
S'\xe5\xb0:>'
p2136
tp2137
Rp2138
g1
(g16
S'\x00\x00\x00\x80\r\x83\xe2?'
p2139
tp2140
Rp2141
tp2142
sI485
(g1
(g5
S'$\x04m='
p2143
tp2144
Rp2145
g1
(g5
S'\x1b8\x06>'
p2146
tp2147
Rp2148
g1
(g16
S'\x00\x00\x00\xe06\xf4\xe9?'
p2149
tp2150
Rp2151
tp2152
sI8678
(g1
(g5
S'\x96-\x0e>'
p2153
tp2154
Rp2155
g1
(g5
S'\xe0\xdbi>'
p2156
tp2157
Rp2158
g1
(g16
S'\x00\x00\x00P\xb4?\xe4?'
p2159
tp2160
Rp2161
tp2162
sI7655
(g1
(g5
S'CH\xb2='
p2163
tp2164
Rp2165
g1
(g5
S'@\xa9D>'
p2166
tp2167
Rp2168
g1
(g16
S'\x00\x00\x00\xf4\x94\x11\xe7?'
p2169
tp2170
Rp2171
tp2172
sI5098
(g1
(g5
S'&_5='
p2173
tp2174
Rp2175
g1
(g5
S'\x14s\r>'
p2176
tp2177
Rp2178
g1
(g16
S'\x00\x00\x00\x14\xa9)\xea?'
p2179
tp2180
Rp2181
tp2182
sI6123
(g1
(g5
S',\xb4\x9e='
p2183
tp2184
Rp2185
g1
(g5
S'\xbb\xda7>'
p2186
tp2187
Rp2188
g1
(g16
S'\x00\x00\x00xY\xc6\xe7?'
p2189
tp2190
Rp2191
tp2192
sI9196
(g1
(g5
S'\\\x01:='
p2193
tp2194
Rp2195
g1
(g5
S'\x15\xa3\t>'
p2196
tp2197
Rp2198
g1
(g16
S'\x00\x00\x00\xa0\xe4>\xea?'
p2199
tp2200
Rp2201
tp2202
sI9202
(g1
(g5
S'\x17nx='
p2203
tp2204
Rp2205
g1
(g5
S'\xf6,#>'
p2206
tp2207
Rp2208
g1
(g16
S'\x00\x00\x00"\xbc\xf5\xe8?'
p2209
tp2210
Rp2211
tp2212
sI6132
(g1
(g5
S'\xf4\x1a\x84='
p2213
tp2214
Rp2215
g1
(g5
S'S\xc6$>'
p2216
tp2217
Rp2218
g1
(g16
S'\x00\x00\x00\x98a\xc9\xe8?'
p2219
tp2220
Rp2221
tp2222
sI7859
(g1
(g5
S'\x8e.!>'
p2223
tp2224
Rp2225
g1
(g5
S"\x15\xa8'>"
p2226
tp2227
Rp2228
g1
(g16
S'\x00\x00\x00\xe8J\xb9\xe5?'
p2229
tp2230
Rp2231
tp2232
sI6228
(g1
(g5
S'8\ts='
p2233
tp2234
Rp2235
g1
(g5
S'\x88"!>'
p2236
tp2237
Rp2238
g1
(g16
S'\x00\x00\x00P\xd9\x10\xe9?'
p2239
tp2240
Rp2241
tp2242
sI5887
(g1
(g5
S'}6\xed='
p2243
tp2244
Rp2245
g1
(g5
S'u\xb9d>'
p2246
tp2247
Rp2248
g1
(g16
S'\x00\x00\x00dZ%\xe5?'
p2249
tp2250
Rp2251
tp2252
sI3925
(g1
(g5
S'Y\x982='
p2253
tp2254
Rp2255
g1
(g5
S'\x91\x0e\x08>'
p2256
tp2257
Rp2258
g1
(g16
S'\x00\x00\x00\xc6ZZ\xea?'
p2259
tp2260
Rp2261
tp2262
s.